
main:     file format elf64-x86-64


Disassembly of section .init:

0000000000400390 <_init>:
  400390:	48 83 ec 08          	sub    rsp,0x8
  400394:	e8 73 00 00 00       	call   40040c <call_gmon_start>
  400399:	e8 02 01 00 00       	call   4004a0 <frame_dummy>
  40039e:	e8 2d 03 00 00       	call   4006d0 <__do_global_ctors_aux>
  4003a3:	48 83 c4 08          	add    rsp,0x8
  4003a7:	c3                   	ret    

Disassembly of section .plt:

00000000004003a8 <printf@plt-0x10>:
  4003a8:	ff 35 7a 06 20 00    	push   QWORD PTR [rip+0x20067a]        # 600a28 <_GLOBAL_OFFSET_TABLE_+0x8>
  4003ae:	ff 25 7c 06 20 00    	jmp    QWORD PTR [rip+0x20067c]        # 600a30 <_GLOBAL_OFFSET_TABLE_+0x10>
  4003b4:	0f 1f 40 00          	nop    DWORD PTR [rax+0x0]

00000000004003b8 <printf@plt>:
  4003b8:	ff 25 7a 06 20 00    	jmp    QWORD PTR [rip+0x20067a]        # 600a38 <_GLOBAL_OFFSET_TABLE_+0x18>
  4003be:	68 00 00 00 00       	push   0x0
  4003c3:	e9 e0 ff ff ff       	jmp    4003a8 <_init+0x18>

00000000004003c8 <__libc_start_main@plt>:
  4003c8:	ff 25 72 06 20 00    	jmp    QWORD PTR [rip+0x200672]        # 600a40 <_GLOBAL_OFFSET_TABLE_+0x20>
  4003ce:	68 01 00 00 00       	push   0x1
  4003d3:	e9 d0 ff ff ff       	jmp    4003a8 <_init+0x18>

Disassembly of section .text:

00000000004003e0 <_start>:
  4003e0:	31 ed                	xor    ebp,ebp
  4003e2:	49 89 d1             	mov    r9,rdx
  4003e5:	5e                   	pop    rsi
  4003e6:	48 89 e2             	mov    rdx,rsp
  4003e9:	48 83 e4 f0          	and    rsp,0xfffffffffffffff0
  4003ed:	50                   	push   rax
  4003ee:	54                   	push   rsp
  4003ef:	49 c7 c0 30 06 40 00 	mov    r8,0x400630
  4003f6:	48 c7 c1 40 06 40 00 	mov    rcx,0x400640
  4003fd:	48 c7 c7 aa 05 40 00 	mov    rdi,0x4005aa
  400404:	e8 bf ff ff ff       	call   4003c8 <__libc_start_main@plt>
  400409:	f4                   	hlt    
  40040a:	90                   	nop
  40040b:	90                   	nop

000000000040040c <call_gmon_start>:
  40040c:	48 83 ec 08          	sub    rsp,0x8
  400410:	48 8b 05 01 06 20 00 	mov    rax,QWORD PTR [rip+0x200601]        # 600a18 <_DYNAMIC+0x190>
  400417:	48 85 c0             	test   rax,rax
  40041a:	74 02                	je     40041e <call_gmon_start+0x12>
  40041c:	ff d0                	call   rax
  40041e:	48 83 c4 08          	add    rsp,0x8
  400422:	c3                   	ret    
  400423:	90                   	nop
  400424:	90                   	nop
  400425:	90                   	nop
  400426:	90                   	nop
  400427:	90                   	nop
  400428:	90                   	nop
  400429:	90                   	nop
  40042a:	90                   	nop
  40042b:	90                   	nop
  40042c:	90                   	nop
  40042d:	90                   	nop
  40042e:	90                   	nop
  40042f:	90                   	nop

0000000000400430 <__do_global_dtors_aux>:
  400430:	55                   	push   rbp
  400431:	48 89 e5             	mov    rbp,rsp
  400434:	53                   	push   rbx
  400435:	48 83 ec 08          	sub    rsp,0x8
  400439:	80 3d 10 06 20 00 00 	cmp    BYTE PTR [rip+0x200610],0x0        # 600a50 <completed.6349>
  400440:	75 4b                	jne    40048d <__do_global_dtors_aux+0x5d>
  400442:	bb 78 08 60 00       	mov    ebx,0x600878
  400447:	48 8b 05 0a 06 20 00 	mov    rax,QWORD PTR [rip+0x20060a]        # 600a58 <dtor_idx.6351>
  40044e:	48 81 eb 70 08 60 00 	sub    rbx,0x600870
  400455:	48 c1 fb 03          	sar    rbx,0x3
  400459:	48 83 eb 01          	sub    rbx,0x1
  40045d:	48 39 d8             	cmp    rax,rbx
  400460:	73 24                	jae    400486 <__do_global_dtors_aux+0x56>
  400462:	66 0f 1f 44 00 00    	nop    WORD PTR [rax+rax*1+0x0]
  400468:	48 83 c0 01          	add    rax,0x1
  40046c:	48 89 05 e5 05 20 00 	mov    QWORD PTR [rip+0x2005e5],rax        # 600a58 <dtor_idx.6351>
  400473:	ff 14 c5 70 08 60 00 	call   QWORD PTR [rax*8+0x600870]
  40047a:	48 8b 05 d7 05 20 00 	mov    rax,QWORD PTR [rip+0x2005d7]        # 600a58 <dtor_idx.6351>
  400481:	48 39 d8             	cmp    rax,rbx
  400484:	72 e2                	jb     400468 <__do_global_dtors_aux+0x38>
  400486:	c6 05 c3 05 20 00 01 	mov    BYTE PTR [rip+0x2005c3],0x1        # 600a50 <completed.6349>
  40048d:	48 83 c4 08          	add    rsp,0x8
  400491:	5b                   	pop    rbx
  400492:	c9                   	leave  
  400493:	c3                   	ret    
  400494:	66 66 66 2e 0f 1f 84 	data32 data32 nop WORD PTR cs:[rax+rax*1+0x0]
  40049b:	00 00 00 00 00 

00000000004004a0 <frame_dummy>:
  4004a0:	48 83 3d d8 03 20 00 	cmp    QWORD PTR [rip+0x2003d8],0x0        # 600880 <__JCR_END__>
  4004a7:	00 
  4004a8:	55                   	push   rbp
  4004a9:	48 89 e5             	mov    rbp,rsp
  4004ac:	74 12                	je     4004c0 <frame_dummy+0x20>
  4004ae:	b8 00 00 00 00       	mov    eax,0x0
  4004b3:	48 85 c0             	test   rax,rax
  4004b6:	74 08                	je     4004c0 <frame_dummy+0x20>
  4004b8:	bf 80 08 60 00       	mov    edi,0x600880
  4004bd:	c9                   	leave  
  4004be:	ff e0                	jmp    rax
  4004c0:	c9                   	leave  
  4004c1:	c3                   	ret    
  4004c2:	90                   	nop
  4004c3:	90                   	nop

00000000004004c4 <func1>:
  4004c4:	55                   	push   rbp
  4004c5:	48 89 e5             	mov    rbp,rsp
  4004c8:	48 89 7d f8          	mov    QWORD PTR [rbp-0x8],rdi
  4004cc:	f3 0f 11 45 f4       	movss  DWORD PTR [rbp-0xc],xmm0
  4004d1:	48 83 45 f8 01       	add    QWORD PTR [rbp-0x8],0x1
  4004d6:	48 8b 45 f8          	mov    rax,QWORD PTR [rbp-0x8]
  4004da:	c9                   	leave  
  4004db:	c3                   	ret    

00000000004004dc <func2>:
  4004dc:	55                   	push   rbp
  4004dd:	48 89 e5             	mov    rbp,rsp
  4004e0:	48 83 ec 40          	sub    rsp,0x40
  4004e4:	f3 0f 11 45 ec       	movss  DWORD PTR [rbp-0x14],xmm0
  4004e9:	48 89 7d e0          	mov    QWORD PTR [rbp-0x20],rdi
  4004ed:	f3 0f 11 4d dc       	movss  DWORD PTR [rbp-0x24],xmm1
  4004f2:	48 89 75 d0          	mov    QWORD PTR [rbp-0x30],rsi
  4004f6:	48 89 55 c8          	mov    QWORD PTR [rbp-0x38],rdx
  4004fa:	48 83 7d d0 01       	cmp    QWORD PTR [rbp-0x30],0x1
  4004ff:	74 07                	je     400508 <func2+0x2c>
  400501:	48 83 7d e0 00       	cmp    QWORD PTR [rbp-0x20],0x0
  400506:	7e 0e                	jle    400516 <func2+0x3a>
  400508:	c7 45 f8 d0 e2 ff ff 	mov    DWORD PTR [rbp-0x8],0xffffe2d0
  40050f:	c7 45 fc 01 00 00 00 	mov    DWORD PTR [rbp-0x4],0x1
  400516:	f3 0f 10 45 ec       	movss  xmm0,DWORD PTR [rbp-0x14]
  40051b:	48 8b 45 f8          	mov    rax,QWORD PTR [rbp-0x8]
  40051f:	48 89 c7             	mov    rdi,rax
  400522:	e8 9d ff ff ff       	call   4004c4 <func1>
  400527:	48 89 45 d0          	mov    QWORD PTR [rbp-0x30],rax
  40052b:	48 83 45 d0 03       	add    QWORD PTR [rbp-0x30],0x3
  400530:	f3 0f 10 45 dc       	movss  xmm0,DWORD PTR [rbp-0x24]
  400535:	0f 5a c0             	cvtps2pd xmm0,xmm0
  400538:	b8 28 07 40 00       	mov    eax,0x400728
  40053d:	48 89 c7             	mov    rdi,rax
  400540:	b8 01 00 00 00       	mov    eax,0x1
  400545:	e8 6e fe ff ff       	call   4003b8 <printf@plt>
  40054a:	48 8b 45 d0          	mov    rax,QWORD PTR [rbp-0x30]
  40054e:	c9                   	leave  
  40054f:	c3                   	ret    

0000000000400550 <func3>:
  400550:	55                   	push   rbp
  400551:	48 89 e5             	mov    rbp,rsp
  400554:	48 83 ec 30          	sub    rsp,0x30
  400558:	48 89 7d e8          	mov    QWORD PTR [rbp-0x18],rdi
  40055c:	48 89 75 e0          	mov    QWORD PTR [rbp-0x20],rsi
  400560:	89 d0                	mov    eax,edx
  400562:	88 45 dc             	mov    BYTE PTR [rbp-0x24],al
  400565:	48 83 6d e8 03       	sub    QWORD PTR [rbp-0x18],0x3
  40056a:	48 8b 45 e0          	mov    rax,QWORD PTR [rbp-0x20]
  40056e:	48 83 c0 08          	add    rax,0x8
  400572:	8b 00                	mov    eax,DWORD PTR [rax]
  400574:	89 45 fc             	mov    DWORD PTR [rbp-0x4],eax
  400577:	8b 45 fc             	mov    eax,DWORD PTR [rbp-0x4]
  40057a:	48 98                	cdqe   
  40057c:	48 8b 4d e8          	mov    rcx,QWORD PTR [rbp-0x18]
  400580:	ba 13 00 00 00       	mov    edx,0x13
  400585:	48 89 ce             	mov    rsi,rcx
  400588:	f3 0f 10 0d a8 01 00 	movss  xmm1,DWORD PTR [rip+0x1a8]        # 400738 <__dso_handle+0x18>
  40058f:	00 
  400590:	48 89 c7             	mov    rdi,rax
  400593:	f3 0f 10 05 a1 01 00 	movss  xmm0,DWORD PTR [rip+0x1a1]        # 40073c <__dso_handle+0x1c>
  40059a:	00 
  40059b:	e8 3c ff ff ff       	call   4004dc <func2>
  4005a0:	48 89 45 e8          	mov    QWORD PTR [rbp-0x18],rax
  4005a4:	48 8b 45 e8          	mov    rax,QWORD PTR [rbp-0x18]
  4005a8:	c9                   	leave  
  4005a9:	c3                   	ret    

00000000004005aa <main>:
  4005aa:	55                   	push   rbp
  4005ab:	48 89 e5             	mov    rbp,rsp
  4005ae:	48 83 ec 30          	sub    rsp,0x30
  4005b2:	48 c7 45 e8 01 00 00 	mov    QWORD PTR [rbp-0x18],0x1
  4005b9:	00 
  4005ba:	c7 45 f0 89 67 45 23 	mov    DWORD PTR [rbp-0x10],0x23456789
  4005c1:	c7 45 f4 01 00 00 00 	mov    DWORD PTR [rbp-0xc],0x1
  4005c8:	c7 45 d0 01 00 00 00 	mov    DWORD PTR [rbp-0x30],0x1
  4005cf:	c7 45 d4 02 00 00 00 	mov    DWORD PTR [rbp-0x2c],0x2
  4005d6:	c7 45 d8 0d 00 00 00 	mov    DWORD PTR [rbp-0x28],0xd
  4005dd:	c7 45 dc 04 00 00 00 	mov    DWORD PTR [rbp-0x24],0x4
  4005e4:	c7 45 e0 0f 00 00 00 	mov    DWORD PTR [rbp-0x20],0xf
  4005eb:	c6 45 ff 61          	mov    BYTE PTR [rbp-0x1],0x61
  4005ef:	48 8b 45 e8          	mov    rax,QWORD PTR [rbp-0x18]
  4005f3:	f3 0f 10 05 45 01 00 	movss  xmm0,DWORD PTR [rip+0x145]        # 400740 <__dso_handle+0x20>
  4005fa:	00 
  4005fb:	48 89 c7             	mov    rdi,rax
  4005fe:	e8 c1 fe ff ff       	call   4004c4 <func1>
  400603:	0f be 55 ff          	movsx  edx,BYTE PTR [rbp-0x1]
  400607:	48 8b 45 f0          	mov    rax,QWORD PTR [rbp-0x10]
  40060b:	48 8d 48 01          	lea    rcx,[rax+0x1]
  40060f:	48 8d 45 d0          	lea    rax,[rbp-0x30]
  400613:	48 89 c6             	mov    rsi,rax
  400616:	48 89 cf             	mov    rdi,rcx
  400619:	e8 32 ff ff ff       	call   400550 <func3>
  40061e:	48 83 45 e8 01       	add    QWORD PTR [rbp-0x18],0x1
  400623:	eb ca                	jmp    4005ef <main+0x45>
  400625:	90                   	nop
  400626:	90                   	nop
  400627:	90                   	nop
  400628:	90                   	nop
  400629:	90                   	nop
  40062a:	90                   	nop
  40062b:	90                   	nop
  40062c:	90                   	nop
  40062d:	90                   	nop
  40062e:	90                   	nop
  40062f:	90                   	nop

0000000000400630 <__libc_csu_fini>:
  400630:	f3 c3                	repz ret 
  400632:	66 66 66 66 66 2e 0f 	data32 data32 data32 data32 nop WORD PTR cs:[rax+rax*1+0x0]
  400639:	1f 84 00 00 00 00 00 

0000000000400640 <__libc_csu_init>:
  400640:	48 89 6c 24 d8       	mov    QWORD PTR [rsp-0x28],rbp
  400645:	4c 89 64 24 e0       	mov    QWORD PTR [rsp-0x20],r12
  40064a:	48 8d 2d 0b 02 20 00 	lea    rbp,[rip+0x20020b]        # 60085c <__init_array_end>
  400651:	4c 8d 25 04 02 20 00 	lea    r12,[rip+0x200204]        # 60085c <__init_array_end>
  400658:	4c 89 6c 24 e8       	mov    QWORD PTR [rsp-0x18],r13
  40065d:	4c 89 74 24 f0       	mov    QWORD PTR [rsp-0x10],r14
  400662:	4c 89 7c 24 f8       	mov    QWORD PTR [rsp-0x8],r15
  400667:	48 89 5c 24 d0       	mov    QWORD PTR [rsp-0x30],rbx
  40066c:	48 83 ec 38          	sub    rsp,0x38
  400670:	4c 29 e5             	sub    rbp,r12
  400673:	41 89 fd             	mov    r13d,edi
  400676:	49 89 f6             	mov    r14,rsi
  400679:	48 c1 fd 03          	sar    rbp,0x3
  40067d:	49 89 d7             	mov    r15,rdx
  400680:	e8 0b fd ff ff       	call   400390 <_init>
  400685:	48 85 ed             	test   rbp,rbp
  400688:	74 1c                	je     4006a6 <__libc_csu_init+0x66>
  40068a:	31 db                	xor    ebx,ebx
  40068c:	0f 1f 40 00          	nop    DWORD PTR [rax+0x0]
  400690:	4c 89 fa             	mov    rdx,r15
  400693:	4c 89 f6             	mov    rsi,r14
  400696:	44 89 ef             	mov    edi,r13d
  400699:	41 ff 14 dc          	call   QWORD PTR [r12+rbx*8]
  40069d:	48 83 c3 01          	add    rbx,0x1
  4006a1:	48 39 eb             	cmp    rbx,rbp
  4006a4:	72 ea                	jb     400690 <__libc_csu_init+0x50>
  4006a6:	48 8b 5c 24 08       	mov    rbx,QWORD PTR [rsp+0x8]
  4006ab:	48 8b 6c 24 10       	mov    rbp,QWORD PTR [rsp+0x10]
  4006b0:	4c 8b 64 24 18       	mov    r12,QWORD PTR [rsp+0x18]
  4006b5:	4c 8b 6c 24 20       	mov    r13,QWORD PTR [rsp+0x20]
  4006ba:	4c 8b 74 24 28       	mov    r14,QWORD PTR [rsp+0x28]
  4006bf:	4c 8b 7c 24 30       	mov    r15,QWORD PTR [rsp+0x30]
  4006c4:	48 83 c4 38          	add    rsp,0x38
  4006c8:	c3                   	ret    
  4006c9:	90                   	nop
  4006ca:	90                   	nop
  4006cb:	90                   	nop
  4006cc:	90                   	nop
  4006cd:	90                   	nop
  4006ce:	90                   	nop
  4006cf:	90                   	nop

00000000004006d0 <__do_global_ctors_aux>:
  4006d0:	55                   	push   rbp
  4006d1:	48 89 e5             	mov    rbp,rsp
  4006d4:	53                   	push   rbx
  4006d5:	48 83 ec 08          	sub    rsp,0x8
  4006d9:	48 8b 05 80 01 20 00 	mov    rax,QWORD PTR [rip+0x200180]        # 600860 <__CTOR_LIST__>
  4006e0:	48 83 f8 ff          	cmp    rax,0xffffffffffffffff
  4006e4:	74 19                	je     4006ff <__do_global_ctors_aux+0x2f>
  4006e6:	bb 60 08 60 00       	mov    ebx,0x600860
  4006eb:	0f 1f 44 00 00       	nop    DWORD PTR [rax+rax*1+0x0]
  4006f0:	48 83 eb 08          	sub    rbx,0x8
  4006f4:	ff d0                	call   rax
  4006f6:	48 8b 03             	mov    rax,QWORD PTR [rbx]
  4006f9:	48 83 f8 ff          	cmp    rax,0xffffffffffffffff
  4006fd:	75 f1                	jne    4006f0 <__do_global_ctors_aux+0x20>
  4006ff:	48 83 c4 08          	add    rsp,0x8
  400703:	5b                   	pop    rbx
  400704:	c9                   	leave  
  400705:	c3                   	ret    
  400706:	90                   	nop
  400707:	90                   	nop

Disassembly of section .fini:

0000000000400708 <_fini>:
  400708:	48 83 ec 08          	sub    rsp,0x8
  40070c:	e8 1f fd ff ff       	call   400430 <__do_global_dtors_aux>
  400711:	48 83 c4 08          	add    rsp,0x8
  400715:	c3                   	ret    
